ccopy_reg
_reconstructor
p0
(cGoQlearnerPlayer
QLearner
p1
c__builtin__
object
p2
Ntp3
Rp4
(dp5
Vside
p6
NsValpha
p7
F0.7
sVgamma
p8
F0.9
sVq_values
p9
(dp10
sVhistory_states
p11
(lp12
sVinitial_value
p13
F0.5
sb.